; Function Attrs: nounwind uwtable
define ptr @l_Lean_withHeartbeats___rarg___lambda__1(ptr noundef %0, ptr noundef %1, ptr noundef %2, ptr noundef %3) local_unnamed_addr #0 {
  %5 = getelementptr inbounds nuw i8, ptr %0, i64 8
  %6 = load ptr, ptr %5, align 8, !tbaa !4
  %7 = ptrtoint ptr %6 to i64
  %8 = and i64 %7, 1
  %.not = icmp eq i64 %8, 0
  br i1 %.not, label %9, label %lean_inc.exit

9:                                                ; preds = %4
  %.val.i = load i32, ptr %6, align 4, !tbaa !8
  %10 = icmp sgt i32 %.val.i, 0
  br i1 %10, label %11, label %13, !prof !11

11:                                               ; preds = %9
  %12 = add nuw i32 %.val.i, 1
  store i32 %12, ptr %6, align 4, !tbaa !8
  br label %lean_inc.exit

13:                                               ; preds = %9
  %.not.i19 = icmp eq i32 %.val.i, 0
  br i1 %.not.i19, label %lean_inc.exit, label %14

14:                                               ; preds = %13
  tail call void @lean_inc_ref_cold(ptr noundef nonnull %6) #5
  br label %lean_inc.exit

lean_inc.exit:                                    ; preds = %14, %13, %11, %4
  %15 = ptrtoint ptr %0 to i64
  %16 = and i64 %15, 1
  %.not23 = icmp eq i64 %16, 0
  br i1 %.not23, label %17, label %lean_dec.exit

17:                                               ; preds = %lean_inc.exit
  %18 = load i32, ptr %0, align 4, !tbaa !8
  %19 = icmp sgt i32 %18, 1
  br i1 %19, label %20, label %22, !prof !11

20:                                               ; preds = %17
  %21 = add nsw i32 %18, -1
  store i32 %21, ptr %0, align 4, !tbaa !8
  br label %lean_dec.exit

22:                                               ; preds = %17
  %.not.i17 = icmp eq i32 %18, 0
  br i1 %.not.i17, label %lean_dec.exit, label %23

23:                                               ; preds = %22
  tail call void @lean_dec_ref_cold(ptr noundef nonnull %0) #5
  br label %lean_dec.exit

lean_dec.exit:                                    ; preds = %23, %22, %20, %lean_inc.exit
  %24 = getelementptr inbounds nuw i8, ptr %6, i64 16
  %25 = load ptr, ptr %24, align 8, !tbaa !4
  %26 = ptrtoint ptr %25 to i64
  %27 = and i64 %26, 1
  %.not24 = icmp eq i64 %27, 0
  br i1 %.not24, label %28, label %lean_inc.exit15

28:                                               ; preds = %lean_dec.exit
  %.val.i20 = load i32, ptr %25, align 4, !tbaa !8
  %29 = icmp sgt i32 %.val.i20, 0
  br i1 %29, label %30, label %32, !prof !11

30:                                               ; preds = %28
  %31 = add nuw i32 %.val.i20, 1
  store i32 %31, ptr %25, align 4, !tbaa !8
  br label %lean_inc.exit15

32:                                               ; preds = %28
  %.not.i21 = icmp eq i32 %.val.i20, 0
  br i1 %.not.i21, label %lean_inc.exit15, label %33

33:                                               ; preds = %32
  tail call void @lean_inc_ref_cold(ptr noundef nonnull %25) #5
  br label %lean_inc.exit15

lean_inc.exit15:                                  ; preds = %33, %32, %30, %lean_dec.exit
  br i1 %.not, label %34, label %lean_dec.exit16

34:                                               ; preds = %lean_inc.exit15
  %35 = load i32, ptr %6, align 4, !tbaa !8
  %36 = icmp sgt i32 %35, 1
  br i1 %36, label %37, label %39, !prof !11

37:                                               ; preds = %34
  %38 = add nsw i32 %35, -1
  store i32 %38, ptr %6, align 4, !tbaa !8
  br label %lean_dec.exit16

39:                                               ; preds = %34
  %.not.i = icmp eq i32 %35, 0
  br i1 %.not.i, label %lean_dec.exit16, label %40

40:                                               ; preds = %39
  tail call void @lean_dec_ref_cold(ptr noundef nonnull %6) #5
  br label %lean_dec.exit16

lean_dec.exit16:                                  ; preds = %40, %39, %37, %lean_inc.exit15
  %41 = ptrtoint ptr %3 to i64
  %42 = and i64 %41, 1
  %.not25 = icmp eq i64 %42, 0
  br i1 %.not25, label %.critedge.i, label %43, !prof !12

43:                                               ; preds = %lean_dec.exit16
  %44 = ptrtoint ptr %1 to i64
  %45 = and i64 %44, 1
  %.not26 = icmp eq i64 %45, 0
  br i1 %.not26, label %.critedge.i, label %46, !prof !12

46:                                               ; preds = %43
  %47 = lshr i64 %41, 1
  %48 = lshr i64 %44, 1
  %49 = icmp samesign ult i64 %47, %48
  br i1 %49, label %lean_nat_sub.exit, label %50

50:                                               ; preds = %46
  %51 = sub nuw nsw i64 %47, %48
  %52 = shl nuw i64 %51, 1
  %53 = or disjoint i64 %52, 1
  %54 = inttoptr i64 %53 to ptr
  br label %lean_nat_sub.exit

.critedge.i:                                      ; preds = %43, %lean_dec.exit16
  %55 = tail call ptr @lean_nat_big_sub(ptr noundef %3, ptr noundef %1) #5
  br label %lean_nat_sub.exit

lean_nat_sub.exit:                                ; preds = %46, %50, %.critedge.i
  %.1.i = phi ptr [ %55, %.critedge.i ], [ %54, %50 ], [ inttoptr (i64 1 to ptr), %46 ]
  tail call void @lean_inc_heartbeat() #5
  %56 = tail call noalias ptr @mi_malloc_small(i64 noundef 24) #5
  %57 = icmp eq ptr %56, null
  br i1 %57, label %58, label %lean_alloc_ctor.exit

58:                                               ; preds = %lean_nat_sub.exit
  tail call void @lean_internal_panic_out_of_memory() #6
  unreachable

lean_alloc_ctor.exit:                             ; preds = %lean_nat_sub.exit
  %59 = getelementptr inbounds nuw i8, ptr %56, i64 4
  store i32 1, ptr %56, align 4, !tbaa !8
  store i32 131096, ptr %59, align 4
  %60 = getelementptr inbounds nuw i8, ptr %56, i64 8
  store ptr %2, ptr %60, align 8, !tbaa !4
  %61 = getelementptr inbounds nuw i8, ptr %56, i64 16
  store ptr %.1.i, ptr %61, align 8, !tbaa !4
  %62 = tail call ptr @lean_apply_2(ptr noundef %25, ptr noundef nonnull inttoptr (i64 1 to ptr), ptr noundef nonnull %56) #5
  ret ptr %62
}